target datalayout = "e-m:e-p270:32:32-p271:32:32-p272:64:64-i64:64-i128:128-f80:128-n8:16:32:64-S128"
target triple = "x86_64-unknown-linux-gnu"

%"class.std::__shared_count" = type { ptr }
%"class.std::shared_ptr.39" = type { %"class.std::__shared_ptr.40" }
%"class.std::__shared_ptr.40" = type { ptr, %"class.std::__shared_count" }
%"class.facebook::velox::exec::WindowFunction" = type { ptr, %"class.std::shared_ptr.39", ptr, ptr, %"class.facebook::velox::SelectivityVector" }
%"class.facebook::velox::SelectivityVector" = type <{ %"class.std::vector.58", i32, i32, i32, %"class.std::optional.60", [2 x i8] }>
%"class.std::vector.58" = type { %"struct.std::_Vector_base.59" }
%"struct.std::_Vector_base.59" = type { %"struct.std::_Vector_base<unsigned long, std::allocator<unsigned long>>::_Vector_impl" }
%"struct.std::_Vector_base<unsigned long, std::allocator<unsigned long>>::_Vector_impl" = type { %"struct.std::_Vector_base<unsigned long, std::allocator<unsigned long>>::_Vector_impl_data" }
%"struct.std::_Vector_base<unsigned long, std::allocator<unsigned long>>::_Vector_impl_data" = type { ptr, ptr, ptr }
%"class.std::optional.60" = type { %"struct.std::_Optional_base.61" }
%"struct.std::_Optional_base.61" = type { %"struct.std::_Optional_payload.63" }
%"struct.std::_Optional_payload.63" = type { %"struct.std::_Optional_payload_base.64" }
%"struct.std::_Optional_payload_base.64" = type { %"union.std::_Optional_payload_base<bool>::_Storage", i8 }
%"union.std::_Optional_payload_base<bool>::_Storage" = type { %"struct.std::_Optional_payload_base<bool>::_Empty_byte" }
%"struct.std::_Optional_payload_base<bool>::_Empty_byte" = type { i8 }
%"class.facebook::velox::exec::WindowPartition" = type { ptr, %"class.folly::Range", %"class.std::vector.66", %"class.std::vector.71" }
%"class.folly::Range" = type { ptr, ptr }
%"class.std::vector.66" = type { %"struct.std::_Vector_base.67" }
%"struct.std::_Vector_base.67" = type { %"struct.std::_Vector_base<facebook::velox::exec::RowColumn, std::allocator<facebook::velox::exec::RowColumn>>::_Vector_impl" }
%"struct.std::_Vector_base<facebook::velox::exec::RowColumn, std::allocator<facebook::velox::exec::RowColumn>>::_Vector_impl" = type { %"struct.std::_Vector_base<facebook::velox::exec::RowColumn, std::allocator<facebook::velox::exec::RowColumn>>::_Vector_impl_data" }
%"struct.std::_Vector_base<facebook::velox::exec::RowColumn, std::allocator<facebook::velox::exec::RowColumn>>::_Vector_impl_data" = type { ptr, ptr, ptr }
%"class.std::vector.71" = type { %"struct.std::_Vector_base.72" }
%"struct.std::_Vector_base.72" = type { %"struct.std::_Vector_base<std::pair<unsigned int, facebook::velox::core::SortOrder>, std::allocator<std::pair<unsigned int, facebook::velox::core::SortOrder>>>::_Vector_impl" }
%"struct.std::_Vector_base<std::pair<unsigned int, facebook::velox::core::SortOrder>, std::allocator<std::pair<unsigned int, facebook::velox::core::SortOrder>>>::_Vector_impl" = type { %"struct.std::_Vector_base<std::pair<unsigned int, facebook::velox::core::SortOrder>, std::allocator<std::pair<unsigned int, facebook::velox::core::SortOrder>>>::_Vector_impl_data" }
%"struct.std::_Vector_base<std::pair<unsigned int, facebook::velox::core::SortOrder>, std::allocator<std::pair<unsigned int, facebook::velox::core::SortOrder>>>::_Vector_impl_data" = type { ptr, ptr, ptr }
%"class.facebook::velox::functions::window::(anonymous namespace)::RankFunction.141" = type <{ %"class.facebook::velox::exec::WindowFunction", i32, i32, i64, i32, [4 x i8] }>

; Function Attrs: mustprogress nounwind uwtable
define linkonce_odr noundef i64 @_ZNK5folly5RangeIPPcE4sizeEv(ptr noundef nonnull align 8 dereferenceable(16) %this) #4 comdat align 2 {
entry:
  %this.addr = alloca ptr, align 8
  store ptr %this, ptr %this.addr, align 8
  %this1 = load ptr, ptr %this.addr, align 8
  %e_ = getelementptr inbounds %"class.folly::Range", ptr %this1, i32 0, i32 1
  %0 = load ptr, ptr %e_, align 8
  %b_ = getelementptr inbounds %"class.folly::Range", ptr %this1, i32 0, i32 0
  %1 = load ptr, ptr %b_, align 8
  %sub.ptr.lhs.cast = ptrtoint ptr %0 to i64
  %sub.ptr.rhs.cast = ptrtoint ptr %1 to i64
  %sub.ptr.sub = sub i64 %sub.ptr.lhs.cast, %sub.ptr.rhs.cast
  %sub.ptr.div = sdiv exact i64 %sub.ptr.sub, 8
  ret i64 %sub.ptr.div
}

; Function Attrs: mustprogress uwtable
define linkonce_odr noundef i32 @_ZNK8facebook5velox4exec15WindowPartition7numRowsEv(ptr noundef nonnull align 8 dereferenceable(72) %this) #0 comdat align 2 {
entry:
  %this.addr = alloca ptr, align 8
  store ptr %this, ptr %this.addr, align 8
  %this1 = load ptr, ptr %this.addr, align 8
  %partition_ = getelementptr inbounds %"class.facebook::velox::exec::WindowPartition", ptr %this1, i32 0, i32 1
  %call = call noundef i64 @_ZNK5folly5RangeIPPcE4sizeEv(ptr noundef nonnull align 8 dereferenceable(16) %partition_)
  %conv = trunc i64 %call to i32
  ret i32 %conv
}

; Function Attrs: mustprogress uwtable
define internal void @_ZN8facebook5velox9functions6window12_GLOBAL__N_112RankFunctionILNS2_8RankTypeE0EiE14resetPartitionEPKNS0_4exec15WindowPartitionE(ptr noundef nonnull align 8 dereferenceable(100) %this, ptr noundef %partition) unnamed_addr #0 align 2 {
entry:
  %this.addr = alloca ptr, align 8
  %partition.addr = alloca ptr, align 8
  store ptr %this, ptr %this.addr, align 8
  store ptr %partition, ptr %partition.addr, align 8
  %this1 = load ptr, ptr %this.addr, align 8
  %rank_ = getelementptr inbounds %"class.facebook::velox::functions::window::(anonymous namespace)::RankFunction.141", ptr %this1, i32 0, i32 3
  store i64 1, ptr %rank_, align 8
  %currentPeerGroupStart_ = getelementptr inbounds %"class.facebook::velox::functions::window::(anonymous namespace)::RankFunction.141", ptr %this1, i32 0, i32 1
  store i32 0, ptr %currentPeerGroupStart_, align 8
  %previousPeerCount_ = getelementptr inbounds %"class.facebook::velox::functions::window::(anonymous namespace)::RankFunction.141", ptr %this1, i32 0, i32 2
  store i32 0, ptr %previousPeerCount_, align 4
  %0 = load ptr, ptr %partition.addr, align 8
  %call = call noundef i32 @_ZNK8facebook5velox4exec15WindowPartition7numRowsEv(ptr noundef nonnull align 8 dereferenceable(72) %0)
  %numPartitionRows_ = getelementptr inbounds %"class.facebook::velox::functions::window::(anonymous namespace)::RankFunction.141", ptr %this1, i32 0, i32 4
  store i32 %call, ptr %numPartitionRows_, align 8
  ret void
}