; Function Attrs: mustprogress nofree norecurse nosync nounwind willreturn memory(argmem: readwrite) uwtable
define internal void @_ZN8facebook5velox9functions6window12_GLOBAL__N_112RankFunctionILNS2_8RankTypeE0EiE14resetPartitionEPKNS0_4exec15WindowPartitionE(ptr nocapture noundef nonnull writeonly align 8 dereferenceable(100) %this, ptr nocapture noundef readonly %partition) unnamed_addr #11 align 2 {
entry:
  %rank_ = getelementptr inbounds i8, ptr %this, i64 88
  store i64 1, ptr %rank_, align 8
  %currentPeerGroupStart_ = getelementptr inbounds i8, ptr %this, i64 80
  store i32 0, ptr %currentPeerGroupStart_, align 8
  %previousPeerCount_ = getelementptr inbounds i8, ptr %this, i64 84
  store i32 0, ptr %previousPeerCount_, align 4
  %partition_.i = getelementptr inbounds i8, ptr %partition, i64 8
  %e_.i.i = getelementptr inbounds i8, ptr %partition, i64 16
  %0 = load ptr, ptr %e_.i.i, align 8
  %1 = load ptr, ptr %partition_.i, align 8
  %sub.ptr.lhs.cast.i.i = ptrtoint ptr %0 to i64
  %sub.ptr.rhs.cast.i.i = ptrtoint ptr %1 to i64
  %sub.ptr.sub.i.i = sub i64 %sub.ptr.lhs.cast.i.i, %sub.ptr.rhs.cast.i.i
  %sub.ptr.div.i.i = lshr exact i64 %sub.ptr.sub.i.i, 3
  %conv.i = trunc i64 %sub.ptr.div.i.i to i32
  %numPartitionRows_ = getelementptr inbounds i8, ptr %this, i64 96
  store i32 %conv.i, ptr %numPartitionRows_, align 8
  ret void
}